c__builtin__
set
p0
((lp1
S'CBAJ'
p2
aS'NODShiLtJ'
p3
aS'NZOHlLtJ'
p4
aS'BALBcJ'
p5
aS'AJ'
p6
aS'129S1SvImJ'
p7
aS'PWKPhJ'
p8
aS'FVBNJ'
p9
aS'C57BL6NJ'
p10
aS'DBA2J'
p11
aS'CASTEiJ'
p12
aS'WSBEiJ'
p13
atp14
Rp15
.