c__builtin__
set
p0
((lp1
S'MGP_CASTEiJ'
p2
aS'MGP_129S1SvImJ'
p3
aS'MGP_DBA2J'
p4
aS'MGP_AJ'
p5
aS'MGP_CBAJ'
p6
aS'MGP_BALBcJ'
p7
aS'MGP_NODShiLtJ'
p8
aS'MGP_NZOHlLtJ'
p9
aS'MGP_FVBNJ'
p10
aS'MGP_PWKPhJ'
p11
aS'MGP_WSBEiJ'
p12
aS'MGP_C57BL6NJ'
p13
atp14
Rp15
.