(lp0
(lp1
I0
aS'NODShiLtJ'
p2
aa(lp3
I1
aS'NZOHlLtJ'
p4
aa(lp5
I2
aS'BALBcJ'
p6
aa(lp7
I3
aS'AJ'
p8
aa(lp9
I4
aS'129S1SvImJ'
p10
aa(lp11
I5
aS'CBAJ'
p12
aa(lp13
I6
aS'FVBNJ'
p14
aa(lp15
I7
aS'PWKPhJ'
p16
aa(lp17
I8
aS'DBA2J'
p18
aa(lp19
I9
aS'CASTEiJ'
p20
aa(lp21
I10
aS'WSBEiJ'
p22
aa(lp23
I11
aS'C57BL6NJ'
p24
aa.