c__builtin__
set
p0
((lp1
S'MUT0010_A/PR8/Mutant(H1N1)'
p2
aS'MUT0008_A/PR8/LAIV11C/1934(H1N1)'
p3
aS'EPIISL138739_A/Anhui/1/2013(H7N9)'
p4
aS'NCBI16806_A/Beijing/353/1989(H3N2)'
p5
aS'NCBI1013136_A/Panama/2007/1999(H3N2)'
p6
aS'REC0039_rA/Hamburg/05/2009(H1N1)'
p7
aS'NCBI16789_A/Texas/36/1991(H1N1)'
p8
aS'NCBI1004252_A/Thailand/KAN-1/2004(H5N1)'
p9
aS'ASSEM0019_A/ma468-G1-2/2014(H5N8)'
p10
aS'REC0018_rA/hvPR8(4)/lvPR8(1235678)(H1N1)'
p11
aS'MUT0021_A/AH1/EN(H7N9)'
p12
aS'REC0035_rA/HH05(2345678)/HH15(1)(H1N1)'
p13
aS'NCBI1000027_A/PuertoRico/8/1934/MountSinai(H1N1)'
p14
aS'REC0052_rA/SC18(1235678)/TX91(4)(H1N1)'
p15
aS'NCBI1013328_A/Beijing/353/1989(H3N2)'
p16
aS'MUT0001_A/PR8/LAIV/1934(H1N1)'
p17
aS'REC0028_rA/HH05(24678)/HH15(135)(H1N1)'
p18
aS'NCBI14656_B/Lee/1940'
p19
aS'NCBI1000671_A/Texas/36/1991(H1N1)'
p20
aS'ASSEM0007_A/Hamburg/05/2009(H1N1)'
p21
aS'MUT0020_A/AH1/KN(H7N9)'
p22
aS'REC0044_rA/PR8(1345678)/PR8M(2)(H1N1)'
p23
aS'NCBI1004331_A/turkey/VA/55/2002(H7N2)'
p24
aS'NCBI1017982_A/ruddyturnstone/Delaware/650625/2002(H6N1)'
p25
aS'ASSEM0018_A/ma468-G1-1/2014(H5N8)'
p26
aS'REC0053_rA/WSN33(123578)/SC18(46)(H1N1)'
p27
aS'REC0032_rA/HH05(1234678)/HH15(5)(H1N1)'
p28
aS'ASSEM0009_A/Bellamy/1942(H1N1)'
p29
aS'MUT0019_A/Tennessee/1-560/MA1/I/2009(H1N1)'
p30
aS'REC0036_rA/SWE1021(1345678)/SWE9706(2)(H1N2)'
p31
aS'REC0007_rA/hvPR8(1345678)/lvPR8(2)(H1N1)'
p32
aS'ASSEM0039_A/HongKong/486/1997(H5N1)'
p33
aS'REC0031_rA/HH05(1234578)/HH15(6)(H1N1)'
p34
aS'ASSEM0048_A/Tennessee/1-560/2009(H1N1)'
p35
aS'ASSEM0010_A/HongKong/1/1968(H3N2)'
p36
aS'ASSEM0022_A/ma468-G2-3/2014(H5N8)'
p37
aS'REC0003_rA/BJ89(123578)/PR8(46)(H1N1)'
p38
aS'REC0026_rA/PR8(123578)/UKR63(46)(H3N8)'
p39
aS'ASSEM0038_A/HongKong/486/1997(H5N1)'
p40
aS'NCBI1015559_A/NewJersey/8/1976(H1N1)'
p41
aS'MUT0014_A/Hamburg/05/NP133L/2009(H1N1)'
p42
aS'NCBI28500_A/Mexico/4482/2009(H1N1)'
p43
aS'ASSEM0026_rA/X-31(H3N2)'
p44
aS'ASSEM0036_A/HongKong/485/1997(H5N1)'
p45
aS'NCBI1000384_A/PuertoRico/8/1934(H1N1)'
p46
aS'ASSEM0014_A/ma452-G1-1/2014(H5N8)'
p47
aS'REC0004_rA/BJ89(123578)/PR8(46)(H1N1)'
p48
aS'NCBI1003530_A/Mexico/4108/2009(H1N1)'
p49
aS'NCBI1004434_A/Narita/1/2009(H1N1)'
p50
aS'NCBI1000945_A/hvPR8/1934(H1N1)'
p51
aS'NCBI1001132_A/lvPR8/1934(H1N1)'
p52
aS'REC0047_rA/PR8(1234678)/PR8M(5)(H1N1)'
p53
aS'REC0001_rA/hvPR8/1934(H1N1)'
p54
aS'MUT0011_A/PR8/Mutant(H1N1)'
p55
aS'MUT0015_A/Narita/1/2009/MDCK(H1N1)'
p56
aS'REC0002_rA/lvPR8/1934(H1N1)'
p57
aS'NCBI24519_A/turkey/England/1963(H7N3)'
p58
aS'NCBI1013057_A/HongKong/1/1968(H3N2)'
p59
aS'NCBI16807_A/Panama/2007/1999(H3N2)'
p60
aS'REC0043_rA/PR8(2345678)/PR8M(1)(H1N1)'
p61
aS'MUT0019_A/Narita/1/2009/Mouse15(H1N1)'
p62
aS'MUT0012_A/California/04/MA2/I/2009(H1N1)'
p63
aS'ASSEM0002_A/Shanghai/4664T/2013(H7N9)'
p64
aS'ASSEM0006_A/PR8M/1934(H1N1)'
p65
aS'MUT0016_A/Narita/1/2009/MDCK15(H1N1)'
p66
aS'MUT0012_A/PR8/Mutant(H1N1)'
p67
aS'REC0034_rA/HH05(1345678)/HH15(3)(H1N1)'
p68
aS'REC0012_rA/hvPR8(1234568)/lvPR8(7)(H1N1)'
p69
aS'NCBI1000504_A/Panama/2007/1999(H3N2)'
p70
aS'NCBI1027877_A/Brisbane/10/2007(H3N2)'
p71
aS'NCBI1005449_A/Niigata/08F031/2009(H1N1)'
p72
aS'ASSEM0016_A/ma452-G3-2/2014(H5N8)'
p73
aS'REC0040_rA/Hamburg/NY1580/2009(H1N1)'
p74
aS'REC0056_rA/M88(123578)/WSN33(46)(H1N1)'
p75
aS'REC0025_rA/PR8(123578)/ALB76(46)(H1N1)'
p76
aS'MUT0020_A/Tennessee/1-560/MA2/I/2009(H1N1)'
p77
aS'NCBI1015545_A/duck/Alberta/35/1976(H1N1)'
p78
aS'NCBI14892_A/HongKong/1073/99(H9N2)'
p79
aS'NCBI29421_maA/HongKong/1/1968(H3N2)'
p80
aS'ASSEM0040_A/Thailand/16/2004(H5N1)'
p81
aS'REC0020_rA/PR8M(1235678)/PR8F(4)(H1N1)'
p82
aS'REC0005_rA/BJ89(123578)/PR8(46)(H1N1)'
p83
aS'REC0008_rA/hvPR8(1245678)/lvPR8(3)(H1N1)'
p84
aS'REC0059_rA/K173(123578)/WSN33(46)(H1N1)'
p85
aS'NCBI16714_A/HongKong/1/1968(H3N2)'
p86
aS'NCBI1004832_A/duck/Alberta/35/1976(H1N1)'
p87
aS'NCBI1015546_A/duck/Ukraine/1/1963(H3N8)'
p88
aS'REC0016_rA/hvPR8(123)/lvPR8(45678)(H1N1)'
p89
aS'ASSEM0042_A/turkey/Utah/24721-10/1995(H7N3)'
p90
aS'NCBI15521_A/PuertoRico/8/1934(H1N1)'
p91
aS'NCBI1003559_A/Mexico/InDRE4487/2009(H1N1)'
p92
aS'NCBI23563_A/swine/Spain/53207/2004(H1N1)'
p93
aS'ASSEM0004_A/HongKong/156/1997(H5N1)'
p94
aS'REC0009_rA/hvPR8(1235678)/lvPR8(4)(H1N1)'
p95
aS'NCBI1026142_A/mallard/Korea/W452/2014(H5N8)'
p96
aS'NCBI1013336_B/Lee/1940'
p97
aS'NCBI1001047_A/Texas/36/1991(H1N1)'
p98
aS'MUT0010_A/California/04/MA1/Y/2009(H1N1)'
p99
aS'ASSEM0047_A/SolomonIslands/3/2006(H1N1)'
p100
aS'ASSEM0021_A/ma468-G2-2/2014(H5N8)'
p101
aS'ASSEM0028_A/goose/HongKong/437-6/1999(H5N1)'
p102
aS'MUT0011_A/California/04/MA1/I/2009(H1N1)'
p103
aS'REC0057_rA/K173(123578)/SC18(46)(H1N1)'
p104
aS'MUT0018_A/Narita/1/2009/Egg15(H1N1)'
p105
aS'REC0042_rA/swine/Sweden/9706/2010(H1N2)'
p106
aS'REC0060_rA/PR8(1234678)/NL94(5)(H1N1)'
p107
aS'REC0051_rA/SC18(45678)/TX91(123)(H1N1)'
p108
aS'REC0027_rA/PR8(123578)/UKR63(46)(H3N8)'
p109
aS'REC0048_rA/PR8(1234578)/PR8M(6)(H1N1)'
p110
aS'REC0029_rA/HH05(123578)/HH15(46)(H1N1)'
p111
aS'NCBI1043119_A/quail/HongKong/G1/1997(H9N2)'
p112
aS'ASSEM0012_B/Victoria/2/1987'
p113
aS'REC0010_rA/hvPR8(1234678)/lvPR8(5)(H1N1)'
p114
aS'ASSEM0030_A/Philippines/2/1982(H3N2)'
p115
aS'ASSEM0044_A/Kawasaki/173/2001(H1N1)'
p116
aS'NCBI1036623_A/environment/Korea/W468/2014(H5N8)'
p117
aS'NCBI1037743_A/PuertoRico/8/1934(H1N1)'
p118
aS'REC0021_rA/PR8vMountSinai(1235678)/BRAZ78(4)(H1N1)'
p119
aS'ASSEM0015_A/ma452-G3-1/2014(H5N8)'
p120
aS'ASSEM0034_A/HongKong/483/1997(H5N1)'
p121
aS'ASSEM0031_A/WSN/1933(H1N1)'
p122
aS'NCBI16808_A/Panama/2007/1999(H3N2)'
p123
aS'REC0019_rA/hvPR8(6)/lvPR8(1234578)(H1N1)'
p124
aS'NCBI1004366_A/Texas/15/2009(H1N1)'
p125
aS'ASSEM0001_A/BrevigMission/1/1918(H1N1)'
p126
aS'NCBI16775_A/Memphis/1/1971(H3N2)'
p127
aS'MUT0009_A/PR8/LAIV11C/1934(H1N1)'
p128
aS'REC0046_rA/PR8(1235678)/PR8M(4)(H1N1)'
p129
aS'ASSEM0008_A/Hamburg/NY1580/2009(H1N1)'
p130
aS'NCBI16801_A/NewCaledonia/20/1999(H1N1)'
p131
aS'NCBI1006507_A/Brisbane/59/2007(H1N1)'
p132
aS'REC0033_rA/HH05(1235678)/HH15(4)(H1N1)'
p133
aS'ASSEM0043_A/SouthCarolina/1/1918(H1N1)'
p134
aS'NCBI1011014_A/swine/Texas/4199-2/1998(H3N2)'
p135
aS'NCBI16782_A/VietNam/1203/2004(H5N1)'
p136
aS'REC0023_rA/PR8(1234567)/KYG11(8)(H1N1)'
p137
aS'NCBI1000503_A/NewCaledonia/20/1999(H1N1)'
p138
aS'REC0038_rA/PuertoRico/8/1934(H1N1)'
p139
aS'REC0014_rA/hvPR8(123578)/lvPR8(46)(H1N1)'
p140
aS'ASSEM0027_rA/X-31(H3N2)'
p141
aS'NCBI1001121_A/Thailand/16/2004(H5N1)'
p142
aS'MUT0017_A/Narita/1/2009/Egg(H1N1)'
p143
aS'MUT0005_A/PR8/11C/1934(H1N1)'
p144
aS'MUT0015_A/Hamburg/05/NP373T/2009(H1N1)'
p145
aS'ASSEM0005_A/PR8F/1934(H1N1)'
p146
aS'NCBI1000303_A/chicken/Korea/es/2003(H5N1)'
p147
aS'REC0054_rA/M88(123578)/SC18(46)(H1N1)'
p148
aS'NCBI1013290_A/Netherlands/18/1994(H3N2)'
p149
aS'ASSEM0033_A/HongKong/483/1997(H5N1)'
p150
aS'NCBI1000479_A/seal/Massachussetts/1-SC35M/1980(H7N7)'
p151
aS'NCBI1012986_A/VietNam/1203/2004(H5N1)'
p152
aS'ASSEM0045_A/Kawasaki/UTK-4/2009(H1N1)'
p153
aS'NCBI1002638_A/chicken/CT/260413-2/2003(H7N2)'
p154
aS'REC0013_rA/hvPR8(1234567)/lvPR8(8)(H1N1)'
p155
aS'EPIISL85649_A/Jiangsu/1/2011(H1N1)'
p156
aS'REC0061_rA/NL602(1235678)/NY18(4)(H1N1)'
p157
aS'NCBI1013318_A/Wisconsin/67/2005(H3N2)'
p158
aS'EPIISL206573_A/Hunan/42443/2015(H1N1)'
p159
aS'REC0011_rA/hvPR8(1234578)/lvPR8(6)(H1N1)'
p160
aS'ASSEM0041_A/Memphis/8/1988(H3N2)'
p161
aS'ASSEM0046_A/VietNam/1204/2004(H5N1)'
p162
aS'ASSEM0032_A/WSN/1933(H1N1)'
p163
aS'ASSEM0023_A/ma468-G4-2/2014(H5N8)'
p164
aS'EPIISL148286_A/Jiangsu/1/2011(H1N1)'
p165
aS'NCBI1004341_A/Netherlands/602/2009(H1N1)'
p166
aS'NCBI1000515_A/Wisconsin/67/2005(H3N2)'
p167
aS'ASSEM0037_A/HongKong/485/1997(H5N1)'
p168
aS'MUT0007_A/PR8/LAIV11C/1934(H1N1)'
p169
aS'NCBI1005817_A/chicken/Indonesia/7/2003(H5N1)'
p170
aS'ASSEM0029_A/Philippines/2/1982(H3N2)'
p171
aS'NCBI21843_A/NewYork/341/2001(H1N1)'
p172
aS'NCBI1004430_A/California/04/2009(H1N1)'
p173
aS'NCBI1007315_A/Philippines/2/1982(H3N2)'
p174
aS'REC0041_rA/swine/Sweden/1021/2009(H1N2)'
p175
aS'REC0030_rA/HH05(1234567)/HH15(8)(H1N1)'
p176
aS'NCBI22435_A/duck/Ukraine/1/1963(H3N8)'
p177
aS'NCBI1003942_A/swine/Kansas/77778/2007(H1N1)'
p178
aS'MUT0002_A/PR8/LAIV/1934(H1N1)'
p179
aS'MUT0003_A/PR8/LAIV/1934(H1N1)'
p180
aS'MUT0013_A/Hamburg/05/NP100I/2009(H1N1)'
p181
aS'ASSEM0013_A/swine/Spain/54008/2004(H3N2)'
p182
aS'REC0049_rA/PR8(1234567)/PR8M(8)(H1N1)'
p183
aS'NCBI27811_B/Lee/1940'
p184
aS'NCBI1003581_A/NewYork/18/2009(H1N1)'
p185
aS'REC0050_rAA/PR8(4678)/PR8M(1235)(H1N1)'
p186
aS'NCBI27810_B/Lee/1940'
p187
aS'ASSEM0017_A/ma452-G4-1/2014(H5N8)'
p188
aS'ASSEM0024_A/swine/Sweden/1021/2009(H1N2)'
p189
aS'REC0024_rA/PR8(123578)/ALB76(46)(H1N1)'
p190
aS'REC0055_rA/M88(123578)/SC18(4)/K173(6)(H1N1)'
p191
aS'REC0006_rA/hvPR8(2345678)/lvPR8(1)(H1N1)'
p192
aS'REC0045_rA/PR8(1245678)/PR8M(3)(H1N1)'
p193
aS'MUT0006_A/PR8/11C/1934(H1N1)'
p194
aS'REC0037_rA/SWE1021(2)/SWE9706(1345678)(H1N2)'
p195
aS'ASSEM0003_A/HongKong/156/1997(H5N1)'
p196
aS'NCBI27767_A/Mexico/4108/2009(H1N1)'
p197
aS'NCBI1000497_A/swan/Germany/R65/2006(H5N1)'
p198
aS'REC0015_rA/hvPR8(12346)/lvPR8(578)(H1N1)'
p199
aS'ASSEM0025_A/swine/Sweden/9706/2010(H1N2)'
p200
aS'NCBI1000587_A/Netherlands/219/03(H7N7)'
p201
aS'NCBI26149_A/Brazil/11/1978(H1N1)'
p202
aS'ASSEM0035_A/HongKong/483/1997(H5N1)'
p203
aS'NCBI1014826_A/swine/Spain/40564/2002(H1N2)'
p204
aS'NCBI25349_B/Yamagata/16/1988'
p205
aS'MUT0004_A/PR8/11C/1934(H1N1)'
p206
aS'ASSEM0020_A/ma468-G2-1/2014(H5N8)'
p207
aS'NCBI1012984_A/Thailand/KAN-1/2004(H5N1)'
p208
aS'REC0058_rA/K173(1235678)/SC18(4)(H1N1)'
p209
aS'REC0022_rA/PR8(1234567)/MI63(8)(H1N1)'
p210
aS'NCBI1015563_A/turkey/England/1963(H7N3)'
p211
aS'MUT0022_rA/PR8(1234678)/NL94(5)/G384R(H1N1)'
p212
aS'NCBI1002610_A/Brisbane/10/2007(H3N2)'
p213
aS'ASSEM0011_B/Victoria/2/1987'
p214
aS'NCBI1013992_A/Beijing/353/1989(H3N2)'
p215
aS'REC0017_rA/hvPR8(46)/lvPR8(123578)(H1N1)'
p216
atp217
Rp218
.