(dp0
S'NCBI1000479'
p1
S'A.seal.Massachussetts.1-SC35M.1980.H7N7.1'
p2
sS'NCBI1013136'
p3
S'A.Panama.2007.1999.H3N2.4'
p4
sS'ASSEM0007'
p5
S'A.Hamburg.05.2009.H1N1.1'
p6
sS'NCBI1013336'
p7
S'B.Lee.1940.4'
p8
sS'NCBI1036623'
p9
S'A.environment.Korea.W468.2014.H5N8.1'
p10
sS'NCBI1017982'
p11
S'A.ruddyturnstone.Delaware.650625.2002.H6N1.1'
p12
sS'NCBI27767'
p13
S'A.Mexico.4108.2009.H1N1.1'
p14
sS'NCBI1000945'
p15
S'A.hvPR8.1934.H1N1.1'
p16
sS'NCBI1000671'
p17
S'A.Texas.36.1991.H1N1.2'
p18
sS'NCBI16807'
p19
S'A.Panama.2007.1999.H3N2.1'
p20
sS'NCBI1004341'
p21
S'A.Netherlands.602.2009.H1N1.1'
p22
sS'NCBI1000504'
p23
S'A.Panama.2007.1999.H3N2.3'
p24
sS'REC0056'
p25
S'rA.M88(123578).WSN33(46).H1N1.1'
p26
sS'REC0057'
p27
S'rA.K173(123578).SC18(46).H1N1.1'
p28
sS'REC0054'
p29
S'rA.M88(123578).SC18(46).H1N1.1'
p30
sS'REC0055'
p31
S'rA.M88(123578).SC18(4).K173(6).H1N1.1'
p32
sS'REC0052'
p33
S'rA.SC18(1235678).TX91(4).H1N1.1'
p34
sS'REC0053'
p35
S'rA.WSN33(123578).SC18(46).H1N1.1'
p36
sS'REC0050'
p37
S'rA.PR8(4678).PR8M(1235).H1N1.1'
p38
sS'REC0051'
p39
S'rA.SC18(45678).TX91(123).H1N1.1'
p40
sS'MUT0022'
p41
S'A.Narita.1.2009.MDCK15.H1N1.1'
p42
sS'REC0058'
p43
S'rA.K173(1235678).SC18(4).H1N1.1'
p44
sS'REC0059'
p45
S'rA.K173(123578).WSN33(46).H1N1.1'
p46
sS'NCBI1004252'
p47
S'A.Thailand.KAN-1.2004.H5N1.1'
p48
sS'ASSEM0048'
p49
S'A.Tennessee.1-560.2009.H1N1.1'
p50
sS'ASSEM0044'
p51
S'A.Kawasaki.173.2001.H1N1.1'
p52
sS'ASSEM0045'
p53
S'A.Kawasaki.UTK-4.2009.H1N1.1'
p54
sS'ASSEM0046'
p55
S'A.VietNam.1204.2004.H5N1.1'
p56
sS'ASSEM0047'
p57
S'A.SolomonIslands.3.2006.H1N1.1'
p58
sS'ASSEM0040'
p59
S'A.Thailand.16.2004.H5N1.2'
p60
sS'ASSEM0041'
p61
S'A.Memphis.8.1988.H3N2.1'
p62
sS'ASSEM0042'
p63
S'A.turkey.Utah.24721-10.1995.H7N3.1'
p64
sS'ASSEM0043'
p65
S'A.SouthCarolina.1.1918.H1N1.1'
p66
sS'NCBI1013057'
p67
S'A.HongKong.1.1968.H3N2.2'
p68
sS'NCBI1003942'
p69
S'A.swine.Kansas.77778.2007.H1N1.1'
p70
sS'NCBI1026142'
p71
S'A.mallard.Korea.W452.2014.H5N8.1'
p72
sS'NCBI1014826'
p73
S'A.swine.Spain.40564.2002.H1N2.1'
p74
sS'NCBI1000384'
p75
S'A.PuertoRico.8.1934.H1N1.2'
p76
sS'MUT0028'
p77
S'rA.PR8(1234678).NL94(5).G384R.H1N1.1'
p78
sS'NCBI1011014'
p79
S'A.swine.Texas.4199-2.1998.H3N2.1'
p80
sS'REC0023'
p81
S'rA.PR8(1234567).KYG11(8).H1N1.1'
p82
sS'NCBI29421'
p83
S'maA.HongKong.1.1968.H3N2.1'
p84
sS'REC0021'
p85
S'rA.PR8vMountSinai(1235678).BRAZ78(4).H1N1.1'
p86
sS'REC0020'
p87
S'rA.PR8M(1235678).PR8F(4).H1N1.1'
p88
sS'REC0027'
p89
S'rA.PR8(123578).UKR63(46).H3N8.2'
p90
sS'REC0026'
p91
S'rA.PR8(123578).UKR63(46).H3N8.1'
p92
sS'REC0025'
p93
S'rA.PR8(123578).ALB76(46).H1N1.2'
p94
sS'REC0024'
p95
S'rA.PR8(123578).ALB76(46).H1N1.1'
p96
sS'MUT0020'
p97
S'A.Tennessee.1-560.MA2.I.2009.H1N1.1'
p98
sS'REC0029'
p99
S'rA.HH05(123578).HH15(46).H1N1.1'
p100
sS'REC0028'
p101
S'rA.HH05(24678).HH15(135).H1N1.1'
p102
sS'NCBI16775'
p103
S'A.Memphis.1.1971.H3N2.1'
p104
sS'ASSEM0039'
p105
S'A.HongKong.486.1997.H5N1.2'
p106
sS'ASSEM0038'
p107
S'A.HongKong.486.1997.H5N1.1'
p108
sS'NCBI25349'
p109
S'B.Yamagata.16.1988.1'
p110
sS'ASSEM0031'
p111
S'A.WSN.1933.H1N1.1'
p112
sS'ASSEM0030'
p113
S'A.Philippines.2.1982.H3N2.3'
p114
sS'ASSEM0033'
p115
S'A.HongKong.483.1997.H5N1.1'
p116
sS'ASSEM0032'
p117
S'A.WSN.1933.H1N1.2'
p118
sS'ASSEM0035'
p119
S'A.HongKong.483.1997.H5N1.3'
p120
sS'ASSEM0034'
p121
S'A.HongKong.483.1997.H5N1.2'
p122
sS'ASSEM0037'
p123
S'A.HongKong.485.1997.H5N1.2'
p124
sS'ASSEM0036'
p125
S'A.HongKong.485.1997.H5N1.1'
p126
sS'REC0022'
p127
S'rA.PR8(1234567).MI63(8).H1N1.1'
p128
sS'NCBI1000497'
p129
S'A.swan.Germany.R65.2006.H5N1.1'
p130
sS'REC0030'
p131
S'rA.HH05(1234567).HH15(8).H1N1.1'
p132
sS'REC0031'
p133
S'rA.HH05(1234578).HH15(6).H1N1.1'
p134
sS'REC0032'
p135
S'rA.HH05(1234678).HH15(5).H1N1.1'
p136
sS'REC0033'
p137
S'rA.HH05(1235678).HH15(4).H1N1.1'
p138
sS'REC0034'
p139
S'rA.HH05(1345678).HH15(3).H1N1.1'
p140
sS'REC0035'
p141
S'rA.HH05(2345678).HH15(1).H1N1.1'
p142
sS'REC0036'
p143
S'rA.SWE1021(1345678).SWE9706(2).H1N2.1'
p144
sS'REC0037'
p145
S'rA.SWE1021(2).SWE9706(1345678).H1N2.1'
p146
sS'REC0038'
p147
S'rA.PuertoRico.8.1934.H1N1.1'
p148
sS'REC0039'
p149
S'rA.Hamburg.05.2009.H1N1.1'
p150
sS'MUT0025'
p151
S'A.Narita.1.2009.Mouse15.H1N1.1'
p152
sS'NCBI1004331'
p153
S'A.turkey.VA.55.2002.H7N2.1'
p154
sS'NCBI1001132'
p155
S'A.lvPR8.1934.H1N1.1'
p156
sS'ASSEM0028'
p157
S'A.goose.HongKong.437-6.1999.H5N1.1'
p158
sS'ASSEM0029'
p159
S'A.Philippines.2.1982.H3N2.2'
p160
sS'ASSEM0022'
p161
S'A.ma468-G2-3.2014.H5N8.1'
p162
sS'ASSEM0023'
p163
S'A.ma468-G4-2.2014.H5N8.1'
p164
sS'ASSEM0020'
p165
S'A.ma468-G2-1.2014.H5N8.1'
p166
sS'ASSEM0021'
p167
S'A.ma468-G2-2.2014.H5N8.1'
p168
sS'ASSEM0026'
p169
S'rA.X-31.H3N2.1'
p170
sS'ASSEM0027'
p171
S'rA.X-31.H3N2.2'
p172
sS'NCBI28500'
p173
S'A.Mexico.4482.2009.H1N1.1'
p174
sS'NCBI15521'
p175
S'A.PuertoRico.8.1934.H1N1.1'
p176
sS'NCBI1004430'
p177
S'A.California.04.2009.H1N1.1'
p178
sS'REC0009'
p179
S'rA.hvPR8(1235678).lvPR8(4).H1N1.1'
p180
sS'REC0008'
p181
S'rA.hvPR8(1245678).lvPR8(3).H1N1.1'
p182
sS'REC0005'
p183
S'rA.BJ89(123578).PR8(46).H1N1.3'
p184
sS'REC0004'
p185
S'rA.BJ89(123578).PR8(46).H1N1.2'
p186
sS'REC0007'
p187
S'rA.hvPR8(1345678).lvPR8(2).H1N1.1'
p188
sS'REC0006'
p189
S'rA.hvPR8(2345678).lvPR8(1).H1N1.1'
p190
sS'REC0001'
p191
S'rA.hvPR8.1934.H1N1.1'
p192
sS'REC0003'
p193
S'rA.BJ89(123578).PR8(46).H1N1.1'
p194
sS'REC0002'
p195
S'rA.lvPR8.1934.H1N1.1'
p196
sS'NCBI23563'
p197
S'A.swine.Spain.53207.2004.H1N1.1'
p198
sS'NCBI16801'
p199
S'A.NewCaledonia.20.1999.H1N1.1'
p200
sS'NCBI1037743'
p201
S'A.PuertoRico.8.1934.H1N1.3'
p202
sS'NCBI1002638'
p203
S'A.chicken.CT.260413-2.2003.H7N2.1'
p204
sS'EPIISL148286'
p205
S'A.Jiangsu.1.2011.H1N1.1'
p206
sS'NCBI16808'
p207
S'A.Panama.2007.1999.H3N2.2'
p208
sS'NCBI1000027'
p209
S'A.PuertoRico.8.1934.MountSinai.H1N1.1'
p210
sS'NCBI1001121'
p211
S'A.Thailand.16.2004.H5N1.1'
p212
sS'REC0061'
p213
S'rA.NL602(1235678).NY18(4).H1N1.1'
p214
sS'REC0060'
p215
S'rA.PR8(1234678).NL94(5).H1N1.1'
p216
sS'NCBI1001047'
p217
S'A.Texas.36.1991.H1N1.3'
p218
sS'ASSEM0019'
p219
S'A.ma468-G1-2.2014.H5N8.1'
p220
sS'ASSEM0018'
p221
S'A.ma468-G1-1.2014.H5N8.1'
p222
sS'ASSEM0017'
p223
S'A.ma452-G4-1.2014.H5N8.1'
p224
sS'ASSEM0016'
p225
S'A.ma452-G3-2.2014.H5N8.1'
p226
sS'ASSEM0015'
p227
S'A.ma452-G3-1.2014.H5N8.1'
p228
sS'ASSEM0014'
p229
S'A.ma452-G1-1.2014.H5N8.1'
p230
sS'ASSEM0013'
p231
S'A.swine.Spain.54008.2004.H3N2.1'
p232
sS'ASSEM0012'
p233
S'B.Victoria.2.1987.2'
p234
sS'ASSEM0011'
p235
S'B.Victoria.2.1987.1'
p236
sS'ASSEM0010'
p237
S'A.HongKong.1.1968.H3N2.3'
p238
sS'NCBI1003530'
p239
S'A.Mexico.4108.2009.H1N1.2'
p240
sS'EPIISL206573'
p241
S'A.Hunan.42443.2015.H1N1.1'
p242
sS'REC0018'
p243
S'rA.hvPR8(4).lvPR8(1235678).H1N1.1'
p244
sS'REC0019'
p245
S'rA.hvPR8(6).lvPR8(1234578).H1N1.1'
p246
sS'REC0012'
p247
S'rA.hvPR8(1234568).lvPR8(7).H1N1.1'
p248
sS'REC0013'
p249
S'rA.hvPR8(1234567).lvPR8(8).H1N1.1'
p250
sS'REC0010'
p251
S'rA.hvPR8(1234678).lvPR8(5).H1N1.1'
p252
sS'NCBI1015545'
p253
S'A.duck.Alberta.35.1976.H1N1.2'
p254
sS'MUT0027'
p255
S'A.AH1.EN.H7N9.1'
p256
sS'MUT0026'
p257
S'A.AH1.KN.H7N9.1'
p258
sS'REC0014'
p259
S'rA.hvPR8(123578).lvPR8(46).H1N1.1'
p260
sS'REC0015'
p261
S'rA.hvPR8(12346).lvPR8(578).H1N1.1'
p262
sS'NCBI1002610'
p263
S'A.Brisbane.10.2007.H3N2.1'
p264
sS'MUT0002'
p265
S'A.PR8.LAIV.1934.H1N1.2'
p266
sS'NCBI1000587'
p267
S'A.Netherlands.219.2003.H7N7.1'
p268
sS'NCBI1007315'
p269
S'A.Philippines.2.1982.H3N2.1'
p270
sS'MUT0023'
p271
S'A.Narita.1.2009.Egg.H1N1.1'
p272
sS'ASSEM0002'
p273
S'A.Shanghai.4664T.2013.H7N9.1'
p274
sS'ASSEM0003'
p275
S'A.HongKong.156.1997.H5N1.1'
p276
sS'ASSEM0004'
p277
S'A.HongKong.156.1997.H5N1.2'
p278
sS'ASSEM0005'
p279
S'A.PR8F.1934.H1N1.1'
p280
sS'ASSEM0006'
p281
S'A.PR8M.1934.H1N1.1'
p282
sS'NCBI1015546'
p283
S'A.duck.Ukraine.1.1963.H3N8.2'
p284
sS'ASSEM0008'
p285
S'A.Hamburg.NY1580.2009.H1N1.1'
p286
sS'ASSEM0009'
p287
S'A.Bellamy.1942.H1N1.1'
p288
sS'NCBI1000503'
p289
S'A.NewCaledonia.20.1999.H1N1.2'
p290
sS'NCBI1012986'
p291
S'A.VietNam.1203.2004.H5N1.2'
p292
sS'MUT0021'
p293
S'A.Narita.1.2009.MDCK.H1N1.1'
p294
sS'NCBI1012984'
p295
S'A.Thailand.KAN-1.2004.H5N1.2'
p296
sS'EPIISL85649'
p297
S'A.Jiangsu.1.2011.H1N1.2'
p298
sS'REC0011'
p299
S'rA.hvPR8(1234578).lvPR8(6).H1N1.1'
p300
sS'NCBI16789'
p301
S'A.Texas.36.1991.H1N1.1'
p302
sS'REC0016'
p303
S'rA.hvPR8(123).lvPR8(45678).H1N1.1'
p304
sS'REC0017'
p305
S'rA.hvPR8(46).lvPR8(123578).H1N1.1'
p306
sS'NCBI1015559'
p307
S'A.NewJersey.8.1976.H1N1.1'
p308
sS'MUT0024'
p309
S'A.Narita.1.2009.Egg15.H1N1.1'
p310
sS'REC0049'
p311
S'rA.PR8(1234567).PR8M(8).H1N1.1'
p312
sS'REC0048'
p313
S'rA.PR8(1234578).PR8M(6).H1N1.1'
p314
sS'NCBI1004366'
p315
S'A.Texas.15.2009.H1N1.1'
p316
sS'REC0041'
p317
S'rA.swine.Sweden.1021.2009.H1N2.1'
p318
sS'REC0040'
p319
S'rA.Hamburg.NY1580.2009.H1N1.1'
p320
sS'REC0043'
p321
S'rA.PR8(2345678).PR8M(1).H1N1.1'
p322
sS'REC0042'
p323
S'rA.swine.Sweden.9706.2010.H1N2.1'
p324
sS'REC0045'
p325
S'rA.PR8(1245678).PR8M(3).H1N1.1'
p326
sS'REC0044'
p327
S'rA.PR8(1345678).PR8M(2).H1N1.1'
p328
sS'REC0047'
p329
S'rA.PR8(1234678).PR8M(5).H1N1.1'
p330
sS'REC0046'
p331
S'rA.PR8(1235678).PR8M(4).H1N1.1'
p332
sS'NCBI1027877'
p333
S'A.Brisbane.10.2007.H3N2.2'
p334
sS'NCBI1013318'
p335
S'A.Wisconsin.67.2005.H3N2.2'
p336
sS'NCBI1000515'
p337
S'A.Wisconsin.67.2005.H3N2.1'
p338
sS'NCBI16714'
p339
S'A.HongKong.1.1968.H3N2.1'
p340
sS'MUT0005'
p341
S'A.PR8.11C.1934.H1N1.2'
p342
sS'MUT0004'
p343
S'A.PR8.11C.1934.H1N1.1'
p344
sS'MUT0007'
p345
S'A.PR8.LAIV11C.1934.H1N1.1'
p346
sS'MUT0006'
p347
S'A.PR8.11C.1934.H1N1.3'
p348
sS'MUT0001'
p349
S'A.PR8.LAIV.1934.H1N1.1'
p350
sS'MUT0003'
p351
S'A.PR8.LAIV.1934.H1N1.3'
p352
sS'NCBI1004832'
p353
S'A.duck.Alberta.35.1976.H1N1.1'
p354
sS'MUT0009'
p355
S'A.PR8.LAIV11C.1934.H1N1.3'
p356
sS'MUT0008'
p357
S'A.PR8.LAIV11C.1934.H1N1.2'
p358
sS'NCBI14656'
p359
S'B.Lee.1940.1'
p360
sS'NCBI1015563'
p361
S'A.turkey.England.1963.H7N3.2'
p362
sS'EPIISL138739'
p363
S'A.Anhui.1.2013.H7N9.1'
p364
sS'NCBI1003559'
p365
S'A.Mexico.InDRE4487.2009.H1N1.1'
p366
sS'NCBI22435'
p367
S'A.duck.Ukraine.1.1963.H3N8.1'
p368
sS'NCBI1006507'
p369
S'A.Brisbane.59.2007.H1N1.1'
p370
sS'NCBI1000303'
p371
S'A.chicken.Korea.es.2003.H5N1.1'
p372
sS'NCBI24519'
p373
S'A.turkey.England.1963.H7N3.1'
p374
sS'NCBI27811'
p375
S'B.Lee.1940.3'
p376
sS'NCBI27810'
p377
S'B.Lee.1940.2'
p378
sS'MUT0012'
p379
S'A.PR8.Mutant.H1N1.3'
p380
sS'MUT0013'
p381
S'rA.Hamburg.05.NP100I.2009.H1N1.1'
p382
sS'MUT0010'
p383
S'A.PR8.Mutant.H1N1.1'
p384
sS'MUT0011'
p385
S'A.PR8.Mutant.H1N1.2'
p386
sS'MUT0016'
p387
S'A.California.04.MA1.Y.2009.H1N1.1'
p388
sS'MUT0017'
p389
S'A.California.04.MA1.I.2009.H1N1.1'
p390
sS'MUT0014'
p391
S'rA.Hamburg.05.NP133L.2009.H1N1.1'
p392
sS'MUT0015'
p393
S'rA.Hamburg.05.NP373T.2009.H1N1.1'
p394
sS'MUT0018'
p395
S'A.California.04.MA2.I.2009.H1N1.1'
p396
sS'MUT0019'
p397
S'A.Tennessee.1-560.MA1.I.2009.H1N1.1'
p398
sS'NCBI16782'
p399
S'A.VietNam.1203.2004.H5N1.1'
p400
sS'NCBI26149'
p401
S'A.Brazil.11.1978.H1N1.1'
p402
sS'NCBI1005817'
p403
S'A.chicken.Indonesia.7.2003.H5N1.1'
p404
s.