(lp0
(lp1
I0
aS'A.ma468-G1-2.2014.H5N8.1'
p2
aa(lp3
I1
aS'A.Panama.2007.1999.H3N2.3'
p4
aa(lp5
I2
aS'A.California.04.MA1.I.2009.H1N1.1'
p6
aa(lp7
I3
aS'rA.PR8M(1235678).PR8F(4).H1N1.1'
p8
aa(lp9
I4
aS'rA.hvPR8(1234578).lvPR8(6).H1N1.1'
p10
aa(lp11
I5
aS'A.VietNam.1203.2004.H5N1.1'
p12
aa(lp13
I6
aS'A.Bellamy.1942.H1N1.1'
p14
aa(lp15
I7
aS'A.VietNam.1203.2004.H5N1.2'
p16
aa(lp17
I8
aS'rA.hvPR8(4).lvPR8(1235678).H1N1.1'
p18
aa(lp19
I9
aS'A.Jiangsu.1.2011.H1N1.2'
p20
aa(lp21
I10
aS'A.Jiangsu.1.2011.H1N1.1'
p22
aa(lp23
I11
aS'rA.HH05(1345678).HH15(3).H1N1.1'
p24
aa(lp25
I12
aS'rA.hvPR8(123).lvPR8(45678).H1N1.1'
p26
aa(lp27
I13
aS'A.ma468-G2-1.2014.H5N8.1'
p28
aa(lp29
I14
aS'A.Narita.1.2009.Egg.H1N1.1'
p30
aa(lp31
I15
aS'A.duck.Alberta.35.1976.H1N1.1'
p32
aa(lp33
I16
aS'rA.K173(1235678).SC18(4).H1N1.1'
p34
aa(lp35
I17
aS'A.duck.Alberta.35.1976.H1N1.2'
p36
aa(lp37
I18
aS'rA.hvPR8(46).lvPR8(123578).H1N1.1'
p38
aa(lp39
I19
aS'A.ma468-G2-2.2014.H5N8.1'
p40
aa(lp41
I20
aS'rA.SWE1021(1345678).SWE9706(2).H1N2.1'
p42
aa(lp43
I21
aS'A.Philippines.2.1982.H3N2.1'
p44
aa(lp45
I22
aS'A.Philippines.2.1982.H3N2.2'
p46
aa(lp47
I23
aS'A.Philippines.2.1982.H3N2.3'
p48
aa(lp49
I24
aS'A.ruddyturnstone.Delaware.650625.2002.H6N1.1'
p50
aa(lp51
I25
aS'A.Texas.36.1991.H1N1.2'
p52
aa(lp53
I26
aS'A.Texas.36.1991.H1N1.1'
p54
aa(lp55
I27
aS'rA.X-31.H3N2.2'
p56
aa(lp57
I28
aS'rA.X-31.H3N2.1'
p58
aa(lp59
I29
aS'A.Mexico.4482.2009.H1N1.1'
p60
aa(lp61
I30
aS'rA.HH05(2345678).HH15(1).H1N1.1'
p62
aa(lp63
I31
aS'rA.WSN33(123578).SC18(46).H1N1.1'
p64
aa(lp65
I32
aS'A.NewCaledonia.20.1999.H1N1.1'
p66
aa(lp67
I33
aS'A.chicken.Korea.es.2003.H5N1.1'
p68
aa(lp69
I34
aS'A.Narita.1.2009.Mouse15.H1N1.1'
p70
aa(lp71
I35
aS'rA.PR8(1245678).PR8M(3).H1N1.1'
p72
aa(lp73
I36
aS'rA.K173(123578).WSN33(46).H1N1.1'
p74
aa(lp75
I37
aS'A.hvPR8.1934.H1N1.1'
p76
aa(lp77
I38
aS'A.Shanghai.4664T.2013.H7N9.1'
p78
aa(lp79
I39
aS'rA.PR8(1234678).NL94(5).H1N1.1'
p80
aa(lp81
I40
aS'A.AH1.KN.H7N9.1'
p82
aa(lp83
I41
aS'rA.HH05(1234678).HH15(5).H1N1.1'
p84
aa(lp85
I42
aS'rA.PR8(1234678).PR8M(5).H1N1.1'
p86
aa(lp87
I43
aS'rA.hvPR8(1234568).lvPR8(7).H1N1.1'
p88
aa(lp89
I44
aS'rA.hvPR8(1234567).lvPR8(8).H1N1.1'
p90
aa(lp91
I45
aS'A.seal.Massachussetts.1-SC35M.1980.H7N7.1'
p92
aa(lp93
I46
aS'rA.K173(123578).SC18(46).H1N1.1'
p94
aa(lp95
I47
aS'rA.PR8(1234578).PR8M(6).H1N1.1'
p96
aa(lp97
I48
aS'B.Yamagata.16.1988.1'
p98
aa(lp99
I49
aS'A.HongKong.156.1997.H5N1.2'
p100
aa(lp101
I50
aS'A.Narita.1.2009.MDCK.H1N1.1'
p102
aa(lp103
I51
aS'A.HongKong.156.1997.H5N1.1'
p104
aa(lp105
I52
aS'rA.M88(123578).SC18(46).H1N1.1'
p106
aa(lp107
I53
aS'A.swine.Spain.53207.2004.H1N1.1'
p108
aa(lp109
I54
aS'rA.PuertoRico.8.1934.H1N1.1'
p110
aa(lp111
I55
aS'rA.Hamburg.05.NP133L.2009.H1N1.1'
p112
aa(lp113
I56
aS'rA.HH05(24678).HH15(135).H1N1.1'
p114
aa(lp115
I57
aS'A.HongKong.483.1997.H5N1.1'
p116
aa(lp117
I58
aS'rA.hvPR8(2345678).lvPR8(1).H1N1.1'
p118
aa(lp119
I59
aS'A.HongKong.483.1997.H5N1.3'
p120
aa(lp121
I60
aS'A.HongKong.483.1997.H5N1.2'
p122
aa(lp123
I61
aS'A.turkey.VA.55.2002.H7N2.1'
p124
aa(lp125
I62
aS'rA.Hamburg.NY1580.2009.H1N1.1'
p126
aa(lp127
I63
aS'A.Memphis.8.1988.H3N2.1'
p128
aa(lp129
I64
aS'A.Texas.15.2009.H1N1.1'
p130
aa(lp131
I65
aS'A.Mexico.InDRE4487.2009.H1N1.1'
p132
aa(lp133
I66
aS'A.ma452-G1-1.2014.H5N8.1'
p134
aa(lp135
I67
aS'A.ma468-G4-2.2014.H5N8.1'
p136
aa(lp137
I68
aS'A.Brisbane.59.2007.H1N1.1'
p138
aa(lp139
I69
aS'rA.swine.Sweden.1021.2009.H1N2.1'
p140
aa(lp141
I70
aS'A.Anhui.1.2013.H7N9.1'
p142
aa(lp143
I71
aS'A.Brisbane.10.2007.H3N2.1'
p144
aa(lp145
I72
aS'A.Panama.2007.1999.H3N2.1'
p146
aa(lp147
I73
aS'rA.HH05(123578).HH15(46).H1N1.1'
p148
aa(lp149
I74
aS'A.Brisbane.10.2007.H3N2.2'
p150
aa(lp151
I75
aS'A.Panama.2007.1999.H3N2.4'
p152
aa(lp153
I76
aS'A.swine.Texas.4199-2.1998.H3N2.1'
p154
aa(lp155
I77
aS'rA.Hamburg.05.NP373T.2009.H1N1.1'
p156
aa(lp157
I78
aS'rA.hvPR8(1235678).lvPR8(4).H1N1.1'
p158
aa(lp159
I79
aS'A.turkey.Utah.24721-10.1995.H7N3.1'
p160
aa(lp161
I80
aS'A.Narita.1.2009.MDCK15.H1N1.1'
p162
aa(lp163
I81
aS'rA.HH05(1234578).HH15(6).H1N1.1'
p164
aa(lp165
I82
aS'A.swine.Spain.40564.2002.H1N2.1'
p166
aa(lp167
I83
aS'A.Kawasaki.173.2001.H1N1.1'
p168
aa(lp169
I84
aS'rA.PR8(1234567).KYG11(8).H1N1.1'
p170
aa(lp171
I85
aS'A.swine.Spain.54008.2004.H3N2.1'
p172
aa(lp173
I86
aS'A.PR8.LAIV11C.1934.H1N1.3'
p174
aa(lp175
I87
aS'A.PR8.Mutant.H1N1.3'
p176
aa(lp177
I88
aS'A.PR8.Mutant.H1N1.2'
p178
aa(lp179
I89
aS'rA.HH05(1234567).HH15(8).H1N1.1'
p180
aa(lp181
I90
aS'A.VietNam.1204.2004.H5N1.1'
p182
aa(lp183
I91
aS'A.Thailand.KAN-1.2004.H5N1.1'
p184
aa(lp185
I92
aS'A.Thailand.16.2004.H5N1.2'
p186
aa(lp187
I93
aS'A.SouthCarolina.1.1918.H1N1.1'
p188
aa(lp189
I94
aS'rA.PR8(1235678).PR8M(4).H1N1.1'
p190
aa(lp191
I95
aS'A.Panama.2007.1999.H3N2.2'
p192
aa(lp193
I96
aS'A.swine.Kansas.77778.2007.H1N1.1'
p194
aa(lp195
I97
aS'rA.Hamburg.05.2009.H1N1.1'
p196
aa(lp197
I98
aS'rA.BJ89(123578).PR8(46).H1N1.2'
p198
aa(lp199
I99
aS'rA.BJ89(123578).PR8(46).H1N1.3'
p200
aa(lp201
I100
aS'A.PR8.LAIV.1934.H1N1.2'
p202
aa(lp203
I101
aS'A.PR8.Mutant.H1N1.1'
p204
aa(lp205
I102
aS'rA.PR8(4678).PR8M(1235).H1N1.1'
p206
aa(lp207
I103
aS'A.Memphis.1.1971.H3N2.1'
p208
aa(lp209
I104
aS'A.ma468-G2-3.2014.H5N8.1'
p210
aa(lp211
I105
aS'A.Brazil.11.1978.H1N1.1'
p212
aa(lp213
I106
aS'A.AH1.EN.H7N9.1'
p214
aa(lp215
I107
aS'A.PR8.LAIV11C.1934.H1N1.2'
p216
aa(lp217
I108
aS'rA.hvPR8(1345678).lvPR8(2).H1N1.1'
p218
aa(lp219
I109
aS'rA.PR8(2345678).PR8M(1).H1N1.1'
p220
aa(lp221
I110
aS'rA.SC18(1235678).TX91(4).H1N1.1'
p222
aa(lp223
I111
aS'A.lvPR8.1934.H1N1.1'
p224
aa(lp225
I112
aS'A.ma452-G4-1.2014.H5N8.1'
p226
aa(lp227
I113
aS'rA.HH05(1235678).HH15(4).H1N1.1'
p228
aa(lp229
I114
aS'A.Tennessee.1-560.MA1.I.2009.H1N1.1'
p230
aa(lp231
I115
aS'A.PR8F.1934.H1N1.1'
p232
aa(lp233
I116
aS'A.WSN.1933.H1N1.2'
p234
aa(lp235
I117
aS'A.WSN.1933.H1N1.1'
p236
aa(lp237
I118
aS'A.Thailand.16.2004.H5N1.1'
p238
aa(lp239
I119
aS'rA.hvPR8(12346).lvPR8(578).H1N1.1'
p240
aa(lp241
I120
aS'A.Thailand.KAN-1.2004.H5N1.2'
p242
aa(lp243
I121
aS'A.turkey.England.1963.H7N3.1'
p244
aa(lp245
I122
aS'A.Texas.36.1991.H1N1.3'
p246
aa(lp247
I123
aS'A.HongKong.486.1997.H5N1.1'
p248
aa(lp249
I124
aS'A.HongKong.486.1997.H5N1.2'
p250
aa(lp251
I125
aS'A.turkey.England.1963.H7N3.2'
p252
aa(lp253
I126
aS'A.PuertoRico.8.1934.H1N1.2'
p254
aa(lp255
I127
aS'A.PuertoRico.8.1934.H1N1.3'
p256
aa(lp257
I128
aS'rA.M88(123578).WSN33(46).H1N1.1'
p258
aa(lp259
I129
aS'A.PuertoRico.8.1934.H1N1.1'
p260
aa(lp261
I130
aS'B.Lee.1940.4'
p262
aa(lp263
I131
aS'A.PR8.11C.1934.H1N1.3'
p264
aa(lp265
I132
aS'A.PR8.11C.1934.H1N1.1'
p266
aa(lp267
I133
aS'B.Lee.1940.1'
p268
aa(lp269
I134
aS'B.Lee.1940.2'
p270
aa(lp271
I135
aS'B.Lee.1940.3'
p272
aa(lp273
I136
aS'rA.hvPR8(123578).lvPR8(46).H1N1.1'
p274
aa(lp275
I137
aS'A.Hamburg.NY1580.2009.H1N1.1'
p276
aa(lp277
I138
aS'rA.hvPR8.1934.H1N1.1'
p278
aa(lp279
I139
aS'A.PR8.LAIV11C.1934.H1N1.1'
p280
aa(lp281
I140
aS'A.HongKong.1.1968.H3N2.2'
p282
aa(lp283
I141
aS'A.HongKong.1.1968.H3N2.3'
p284
aa(lp285
I142
aS'A.HongKong.1.1968.H3N2.1'
p286
aa(lp287
I143
aS'rA.hvPR8(1245678).lvPR8(3).H1N1.1'
p288
aa(lp289
I144
aS'A.Tennessee.1-560.MA2.I.2009.H1N1.1'
p290
aa(lp291
I145
aS'A.Hamburg.05.2009.H1N1.1'
p292
aa(lp293
I146
aS'A.Tennessee.1-560.2009.H1N1.1'
p294
aa(lp295
I147
aS'rA.Hamburg.05.NP100I.2009.H1N1.1'
p296
aa(lp297
I148
aS'rA.PR8(1234678).NL94(5).G384R.H1N1.1'
p298
aa(lp299
I149
aS'rA.PR8vMountSinai(1235678).BRAZ78(4).H1N1.1'
p300
aa(lp301
I150
aS'A.NewCaledonia.20.1999.H1N1.2'
p302
aa(lp303
I151
aS'rA.NL602(1235678).NY18(4).H1N1.1'
p304
aa(lp305
I152
aS'A.ma468-G1-1.2014.H5N8.1'
p306
aa(lp307
I153
aS'rA.swine.Sweden.9706.2010.H1N2.1'
p308
aa(lp309
I154
aS'A.Kawasaki.UTK-4.2009.H1N1.1'
p310
aa(lp311
I155
aS'A.duck.Ukraine.1.1963.H3N8.2'
p312
aa(lp313
I156
aS'A.HongKong.485.1997.H5N1.2'
p314
aa(lp315
I157
aS'A.HongKong.485.1997.H5N1.1'
p316
aa(lp317
I158
aS'A.duck.Ukraine.1.1963.H3N8.1'
p318
aa(lp319
I159
aS'rA.PR8(123578).UKR63(46).H3N8.2'
p320
aa(lp321
I160
aS'rA.M88(123578).SC18(4).K173(6).H1N1.1'
p322
aa(lp323
I161
aS'rA.PR8(123578).UKR63(46).H3N8.1'
p324
aa(lp325
I162
aS'A.California.04.2009.H1N1.1'
p326
aa(lp327
I163
aS'rA.lvPR8.1934.H1N1.1'
p328
aa(lp329
I164
aS'rA.SC18(45678).TX91(123).H1N1.1'
p330
aa(lp331
I165
aS'A.Hunan.42443.2015.H1N1.1'
p332
aa(lp333
I166
aS'A.ma452-G3-1.2014.H5N8.1'
p334
aa(lp335
I167
aS'A.chicken.CT.260413-2.2003.H7N2.1'
p336
aa(lp337
I168
aS'maA.HongKong.1.1968.H3N2.1'
p338
aa(lp339
I169
aS'A.Netherlands.219.2003.H7N7.1'
p340
aa(lp341
I170
aS'A.environment.Korea.W468.2014.H5N8.1'
p342
aa(lp343
I171
aS'A.goose.HongKong.437-6.1999.H5N1.1'
p344
aa(lp345
I172
aS'A.PR8.11C.1934.H1N1.2'
p346
aa(lp347
I173
aS'A.swan.Germany.R65.2006.H5N1.1'
p348
aa(lp349
I174
aS'A.California.04.MA1.Y.2009.H1N1.1'
p350
aa(lp351
I175
aS'rA.PR8(123578).ALB76(46).H1N1.1'
p352
aa(lp353
I176
aS'rA.PR8(123578).ALB76(46).H1N1.2'
p354
aa(lp355
I177
aS'A.chicken.Indonesia.7.2003.H5N1.1'
p356
aa(lp357
I178
aS'rA.SWE1021(2).SWE9706(1345678).H1N2.1'
p358
aa(lp359
I179
aS'A.Mexico.4108.2009.H1N1.2'
p360
aa(lp361
I180
aS'A.Mexico.4108.2009.H1N1.1'
p362
aa(lp363
I181
aS'rA.BJ89(123578).PR8(46).H1N1.1'
p364
aa(lp365
I182
aS'A.Netherlands.602.2009.H1N1.1'
p366
aa(lp367
I183
aS'rA.PR8(1234567).MI63(8).H1N1.1'
p368
aa(lp369
I184
aS'B.Victoria.2.1987.2'
p370
aa(lp371
I185
aS'B.Victoria.2.1987.1'
p372
aa(lp373
I186
aS'A.NewJersey.8.1976.H1N1.1'
p374
aa(lp375
I187
aS'A.PR8.LAIV.1934.H1N1.3'
p376
aa(lp377
I188
aS'A.PuertoRico.8.1934.MountSinai.H1N1.1'
p378
aa(lp379
I189
aS'rA.PR8(1234567).PR8M(8).H1N1.1'
p380
aa(lp381
I190
aS'rA.hvPR8(1234678).lvPR8(5).H1N1.1'
p382
aa(lp383
I191
aS'A.PR8M.1934.H1N1.1'
p384
aa(lp385
I192
aS'A.PR8.LAIV.1934.H1N1.1'
p386
aa(lp387
I193
aS'rA.hvPR8(6).lvPR8(1234578).H1N1.1'
p388
aa(lp389
I194
aS'A.California.04.MA2.I.2009.H1N1.1'
p390
aa(lp391
I195
aS'A.SolomonIslands.3.2006.H1N1.1'
p392
aa(lp393
I196
aS'rA.PR8(1345678).PR8M(2).H1N1.1'
p394
aa(lp395
I197
aS'A.ma452-G3-2.2014.H5N8.1'
p396
aa(lp397
I198
aS'A.Narita.1.2009.Egg15.H1N1.1'
p398
aa(lp399
I199
aS'A.Wisconsin.67.2005.H3N2.2'
p400
aa(lp401
I200
aS'A.Wisconsin.67.2005.H3N2.1'
p402
aa(lp403
I201
aS'A.mallard.Korea.W452.2014.H5N8.1'
p404
aa.